target datalayout = "e-m:e-p270:32:32-p271:32:32-p272:64:64-i64:64-i128:128-f80:128-n8:16:32:64-S128"
target triple = "x86_64-pc-linux-gnu"

@hf_aim_signon_challenge_len = internal global i32 0, align 4
@hf_aim_signon_challenge = internal global i32 0, align 4

; Function Attrs: null_pointer_is_valid sspstrong uwtable
define internal i32 @dissect_aim_snac_signon_signon_reply(ptr noundef %0, ptr noundef %1, ptr noundef %2) #0 {
  %4 = alloca ptr, align 8
  %5 = alloca ptr, align 8
  %6 = alloca ptr, align 8
  %7 = alloca i32, align 4
  %8 = alloca i16, align 2
  store ptr %0, ptr %4, align 8
  store ptr %1, ptr %5, align 8
  store ptr %2, ptr %6, align 8
  call void @llvm.lifetime.start.p0(i64 4, ptr %7) #13
  store i32 0, ptr %7, align 4
  call void @llvm.lifetime.start.p0(i64 2, ptr %8) #13
  store i16 0, ptr %8, align 2
  %9 = load ptr, ptr %4, align 8
  %10 = load i32, ptr %7, align 4
  %11 = call zeroext i16 @tvb_get_ntohs(ptr noundef %9, i32 noundef %10)
  store i16 %11, ptr %8, align 2
  %12 = load ptr, ptr %6, align 8
  %13 = load i32, ptr @hf_aim_signon_challenge_len, align 4
  %14 = load ptr, ptr %4, align 8
  %15 = load i32, ptr %7, align 4
  %16 = call ptr @proto_tree_add_item(ptr noundef %12, i32 noundef %13, ptr noundef %14, i32 noundef %15, i32 noundef 2, i32 noundef 0)
  %17 = load i32, ptr %7, align 4
  %18 = add i32 %17, 2
  store i32 %18, ptr %7, align 4
  %19 = load ptr, ptr %6, align 8
  %20 = load i32, ptr @hf_aim_signon_challenge, align 4
  %21 = load ptr, ptr %4, align 8
  %22 = load i32, ptr %7, align 4
  %23 = load i16, ptr %8, align 2
  %24 = zext i16 %23 to i32
  %25 = call ptr @proto_tree_add_item(ptr noundef %19, i32 noundef %20, ptr noundef %21, i32 noundef %22, i32 noundef %24, i32 noundef 2)
  %26 = load i16, ptr %8, align 2
  %27 = zext i16 %26 to i32
  %28 = load i32, ptr %7, align 4
  %29 = add i32 %28, %27
  store i32 %29, ptr %7, align 4
  %30 = load i32, ptr %7, align 4
  call void @llvm.lifetime.end.p0(i64 2, ptr %8) #13
  call void @llvm.lifetime.end.p0(i64 4, ptr %7) #13
  ret i32 %30
}