; Function Attrs: null_pointer_is_valid sspstrong uwtable
define internal range(i32 2, 65538) i32 @dissect_aim_snac_signon_signon_reply(ptr noundef %0, ptr readnone captures(none) %1, ptr noundef %2) #0 {
  %4 = tail call zeroext i16 @tvb_get_ntohs(ptr noundef %0, i32 noundef 0)
  %5 = load i32, ptr @hf_aim_signon_challenge_len, align 4
  %6 = tail call ptr @proto_tree_add_item(ptr noundef %2, i32 noundef %5, ptr noundef %0, i32 noundef 0, i32 noundef 2, i32 noundef 0)
  %7 = load i32, ptr @hf_aim_signon_challenge, align 4
  %8 = zext i16 %4 to i32
  %9 = tail call ptr @proto_tree_add_item(ptr noundef %2, i32 noundef %7, ptr noundef %0, i32 noundef 2, i32 noundef %8, i32 noundef 2)
  %10 = add nuw nsw i32 %8, 2
  ret i32 %10
}